; Function Attrs: null_pointer_is_valid sspstrong uwtable
define i32 @proto_registrar_get_id_byname(ptr noundef %0) local_unnamed_addr #0 {
  %2 = tail call ptr @proto_registrar_get_byname(ptr noundef %0)
  %.not = icmp eq ptr %2, null
  br i1 %.not, label %6, label %3

3:                                                ; preds = %1
  %4 = getelementptr inbounds nuw i8, ptr %2, i64 48
  %5 = load i32, ptr %4, align 8
  br label %6

6:                                                ; preds = %1, %3
  %.0 = phi i32 [ %5, %3 ], [ -1, %1 ]
  ret i32 %.0
}